; ModuleID = 'source-C-CXX/8/1340.c'
source_filename = "source-C-CXX/8/1340.c"
target datalayout = "e-m:e-p270:32:32-p271:32:32-p272:64:64-i64:64-f80:128-n8:16:32:64-S128"
target triple = "x86_64-pc-linux-gnu"

%struct.patient = type { [10 x i8], i32 }

@.str = private unnamed_addr constant [3 x i8] c"%d\00", align 1
@.str.1 = private unnamed_addr constant [6 x i8] c"%s %d\00", align 1

; Function Attrs: nofree nounwind sspstrong uwtable
define dso_local i32 @main() local_unnamed_addr #0 {
  %1 = alloca [100 x %struct.patient], align 16
  %2 = alloca %struct.patient, align 4
  %3 = alloca i32, align 4
  %4 = getelementptr inbounds [100 x %struct.patient], [100 x %struct.patient]* %1, i64 0, i64 0, i32 0, i64 0
  call void @llvm.lifetime.start.p0i8(i64 1600, i8* nonnull %4) #5
  %5 = getelementptr inbounds %struct.patient, %struct.patient* %2, i64 0, i32 0, i64 0
  call void @llvm.lifetime.start.p0i8(i64 16, i8* nonnull %5)
  %6 = bitcast i32* %3 to i8*
  call void @llvm.lifetime.start.p0i8(i64 4, i8* nonnull %6) #5
  %7 = call i32 (i8*, ...) @__isoc99_scanf(i8* getelementptr inbounds ([3 x i8], [3 x i8]* @.str, i64 0, i64 0), i32* nonnull %3)
  %8 = load i32, i32* %3, align 4, !tbaa !5
  %9 = icmp sgt i32 %8, 0
  br i1 %9, label %12, label %53

10:                                               ; preds = %12
  %11 = icmp sgt i32 %18, 0
  br i1 %11, label %21, label %53

12:                                               ; preds = %0, %12
  %13 = phi i64 [ %17, %12 ], [ 0, %0 ]
  %14 = getelementptr inbounds [100 x %struct.patient], [100 x %struct.patient]* %1, i64 0, i64 %13, i32 0, i64 0
  %15 = getelementptr inbounds [100 x %struct.patient], [100 x %struct.patient]* %1, i64 0, i64 %13, i32 1
  %16 = call i32 (i8*, ...) @__isoc99_scanf(i8* getelementptr inbounds ([6 x i8], [6 x i8]* @.str.1, i64 0, i64 0), i8* nonnull %14, i32* nonnull %15)
  %17 = add nuw nsw i64 %13, 1
  %18 = load i32, i32* %3, align 4, !tbaa !5
  %19 = sext i32 %18 to i64
  %20 = icmp slt i64 %17, %19
  br i1 %20, label %12, label %10, !llvm.loop !9

21:                                               ; preds = %10, %46
  %22 = phi i64 [ %49, %46 ], [ 0, %10 ]
  %23 = phi i32 [ %50, %46 ], [ %18, %10 ]
  %24 = add i32 %23, -1
  %25 = sext i32 %24 to i64
  %26 = icmp slt i64 %22, %25
  br i1 %26, label %27, label %46

27:                                               ; preds = %21, %42
  %28 = phi i64 [ %43, %42 ], [ %25, %21 ]
  %29 = phi i32 [ %45, %42 ], [ %23, %21 ]
  %30 = getelementptr inbounds [100 x %struct.patient], [100 x %struct.patient]* %1, i64 0, i64 %28, i32 1
  %31 = load i32, i32* %30, align 4, !tbaa !11
  %32 = add nsw i32 %29, -2
  %33 = sext i32 %32 to i64
  %34 = getelementptr inbounds [100 x %struct.patient], [100 x %struct.patient]* %1, i64 0, i64 %33, i32 1
  %35 = load i32, i32* %34, align 4, !tbaa !11
  %36 = icmp sgt i32 %31, %35
  %37 = icmp sgt i32 %31, 59
  %38 = and i1 %37, %36
  br i1 %38, label %39, label %42

39:                                               ; preds = %27
  %40 = getelementptr inbounds [100 x %struct.patient], [100 x %struct.patient]* %1, i64 0, i64 %28, i32 0, i64 0
  call void @llvm.memcpy.p0i8.p0i8.i64(i8* noundef nonnull align 4 dereferenceable(16) %5, i8* noundef nonnull align 16 dereferenceable(16) %40, i64 16, i1 false), !tbaa.struct !13
  %41 = getelementptr inbounds [100 x %struct.patient], [100 x %struct.patient]* %1, i64 0, i64 %33, i32 0, i64 0
  call void @llvm.memcpy.p0i8.p0i8.i64(i8* noundef nonnull align 16 dereferenceable(16) %40, i8* noundef nonnull align 16 dereferenceable(16) %41, i64 16, i1 false), !tbaa.struct !13
  call void @llvm.memcpy.p0i8.p0i8.i64(i8* noundef nonnull align 16 dereferenceable(16) %41, i8* noundef nonnull align 4 dereferenceable(16) %5, i64 16, i1 false), !tbaa.struct !13
  br label %42

42:                                               ; preds = %27, %39
  %43 = add nsw i64 %28, -1
  %44 = icmp sgt i64 %43, %22
  %45 = trunc i64 %28 to i32
  br i1 %44, label %27, label %46, !llvm.loop !15

46:                                               ; preds = %42, %21
  %47 = getelementptr inbounds [100 x %struct.patient], [100 x %struct.patient]* %1, i64 0, i64 %22, i32 0, i64 0
  %48 = call i32 @puts(i8* nonnull %47)
  %49 = add nuw nsw i64 %22, 1
  %50 = load i32, i32* %3, align 4, !tbaa !5
  %51 = sext i32 %50 to i64
  %52 = icmp slt i64 %49, %51
  br i1 %52, label %21, label %53, !llvm.loop !16

53:                                               ; preds = %46, %0, %10
  call void @llvm.lifetime.end.p0i8(i64 4, i8* nonnull %6) #5
  call void @llvm.lifetime.end.p0i8(i64 16, i8* nonnull %5)
  call void @llvm.lifetime.end.p0i8(i64 1600, i8* nonnull %4) #5
  ret i32 0
}

; Function Attrs: argmemonly mustprogress nofree nosync nounwind willreturn
declare void @llvm.lifetime.start.p0i8(i64 immarg, i8* nocapture) #1

; Function Attrs: nofree nounwind
declare noundef i32 @__isoc99_scanf(i8* nocapture noundef readonly, ...) local_unnamed_addr #2

; Function Attrs: argmemonly mustprogress nofree nounwind willreturn
declare void @llvm.memcpy.p0i8.p0i8.i64(i8* noalias nocapture writeonly, i8* noalias nocapture readonly, i64, i1 immarg) #3

; Function Attrs: argmemonly mustprogress nofree nosync nounwind willreturn
declare void @llvm.lifetime.end.p0i8(i64 immarg, i8* nocapture) #1

; Function Attrs: nofree nounwind
declare noundef i32 @puts(i8* nocapture noundef readonly) local_unnamed_addr #4


!llvm.module.flags = !{!0, !1, !2, !3}
!llvm.ident = !{!4}

!0 = !{i32 1, !"wchar_size", i32 4}
!1 = !{i32 7, !"PIC Level", i32 2}
!2 = !{i32 7, !"PIE Level", i32 2}
!3 = !{i32 7, !"uwtable", i32 1}
!4 = !{!"clang version 13.0.0"}
!5 = !{!6, !6, i64 0}
!6 = !{!"int", !7, i64 0}
!7 = !{!"omnipotent char", !8, i64 0}
!8 = !{!"Simple C/C++ TBAA"}
!9 = distinct !{!9, !10}
!10 = !{!"llvm.loop.mustprogress"}
!11 = !{!12, !6, i64 12}
!12 = !{!"patient", !7, i64 0, !6, i64 12}
!13 = !{i64 0, i64 10, !14, i64 12, i64 4, !5}
!14 = !{!7, !7, i64 0}
!15 = distinct !{!15, !10}
!16 = distinct !{!16, !10}
